; Function Attrs: nounwind uwtable
define ptr @l_Lean_PrettyPrinter_Delaborator_TopDownAnalyze_analyze_analyzeMData(ptr noundef %0, ptr noundef %1, ptr noundef %2, ptr noundef %3, ptr noundef %4, ptr noundef %5, ptr noundef %6) local_unnamed_addr #1 {
  tail call void @lean_inc_heartbeat() #7
  %8 = tail call noalias ptr @mi_malloc_small(i64 noundef 32) #7
  %9 = icmp eq ptr %8, null
  br i1 %9, label %10, label %lean_alloc_closure.exit

10:                                               ; preds = %7
  tail call void @lean_internal_panic_out_of_memory() #8
  unreachable

lean_alloc_closure.exit:                          ; preds = %7
  %11 = getelementptr inbounds nuw i8, ptr %8, i64 4
  store i32 1, ptr %8, align 4, !tbaa !8
  store i32 -184549344, ptr %11, align 4
  %12 = getelementptr inbounds nuw i8, ptr %8, i64 8
  store ptr @l_Lean_PrettyPrinter_Delaborator_TopDownAnalyze_analyze___boxed, ptr %12, align 8, !tbaa !11
  %13 = getelementptr inbounds nuw i8, ptr %8, i64 16
  store i16 8, ptr %13, align 8, !tbaa !15
  %14 = getelementptr inbounds nuw i8, ptr %8, i64 18
  store i16 1, ptr %14, align 2, !tbaa !15
  %15 = getelementptr inbounds nuw i8, ptr %8, i64 24
  store ptr inttoptr (i64 1 to ptr), ptr %15, align 8, !tbaa !11
  %16 = load ptr, ptr @l_instInhabitedPUnit, align 8, !tbaa !11
  %17 = tail call ptr @l_Lean_PrettyPrinter_Delaborator_SubExpr_withMDataExpr___at_Lean_PrettyPrinter_Delaborator_TopDownAnalyze_analyze_analyzeMData___spec__1(ptr noundef %16, ptr noundef nonnull %8, ptr noundef %0, ptr noundef %1, ptr noundef %2, ptr noundef %3, ptr noundef %4, ptr noundef %5, ptr noundef %6)
  ret ptr %17
}